; ModuleID = 'source-C-CXX/27/691.c'
source_filename = "source-C-CXX/27/691.c"
target datalayout = "e-m:e-p270:32:32-p271:32:32-p272:64:64-i64:64-f80:128-n8:16:32:64-S128"
target triple = "x86_64-pc-linux-gnu"

@.str = private unnamed_addr constant [4 x i8] c"%d,\00", align 1
@.str.1 = private unnamed_addr constant [3 x i8] c"%d\00", align 1

; Function Attrs: nounwind sspstrong uwtable
define dso_local i32 @main() local_unnamed_addr #0 {
  %1 = alloca [3000 x i8], align 16
  %2 = alloca [300 x i32], align 16
  %3 = getelementptr inbounds [3000 x i8], [3000 x i8]* %1, i64 0, i64 0
  call void @llvm.lifetime.start.p0i8(i64 3000, i8* nonnull %3) #5
  %4 = bitcast [300 x i32]* %2 to i8*
  call void @llvm.lifetime.start.p0i8(i64 1200, i8* nonnull %4) #5
  call void @llvm.memset.p0i8.i64(i8* noundef nonnull align 16 dereferenceable(1200) %4, i8 0, i64 1200, i1 false)
  %5 = call i32 (i8*, ...) bitcast (i32 (...)* @gets to i32 (i8*, ...)*)(i8* nonnull %3) #5
  br label %6

6:                                                ; preds = %33, %0
  %7 = phi i32 [ 0, %0 ], [ %37, %33 ]
  %8 = phi i32 [ 0, %0 ], [ %35, %33 ]
  %9 = phi i32 [ 0, %0 ], [ %36, %33 ]
  %10 = sext i32 %7 to i64
  %11 = getelementptr inbounds [3000 x i8], [3000 x i8]* %1, i64 0, i64 %10
  %12 = load i8, i8* %11, align 1, !tbaa !5
  switch i8 %12, label %28 [
    i8 0, label %13
    i8 32, label %19
  ]

13:                                               ; preds = %6
  %14 = sext i32 %9 to i64
  %15 = getelementptr inbounds [300 x i32], [300 x i32]* %2, i64 0, i64 %14
  store i32 %8, i32* %15, align 4, !tbaa !8
  %16 = icmp sgt i32 %9, 0
  br i1 %16, label %17, label %45

17:                                               ; preds = %13
  %18 = zext i32 %9 to i64
  br label %38

19:                                               ; preds = %6
  %20 = sext i32 %9 to i64
  %21 = getelementptr inbounds [300 x i32], [300 x i32]* %2, i64 0, i64 %20
  store i32 %8, i32* %21, align 4, !tbaa !8
  br label %22

22:                                               ; preds = %22, %19
  %23 = phi i64 [ %24, %22 ], [ %10, %19 ]
  %24 = add nsw i64 %23, 1
  %25 = getelementptr inbounds [3000 x i8], [3000 x i8]* %1, i64 0, i64 %24
  %26 = load i8, i8* %25, align 1, !tbaa !5
  %27 = icmp eq i8 %26, 32
  br i1 %27, label %22, label %30

28:                                               ; preds = %6
  %29 = add nsw i32 %8, 1
  br label %33

30:                                               ; preds = %22
  %31 = add nsw i32 %9, 1
  %32 = trunc i64 %23 to i32
  br label %33

33:                                               ; preds = %30, %28
  %34 = phi i32 [ %7, %28 ], [ %32, %30 ]
  %35 = phi i32 [ %29, %28 ], [ 0, %30 ]
  %36 = phi i32 [ %9, %28 ], [ %31, %30 ]
  %37 = add nsw i32 %34, 1
  br label %6

38:                                               ; preds = %17, %38
  %39 = phi i64 [ 0, %17 ], [ %43, %38 ]
  %40 = getelementptr inbounds [300 x i32], [300 x i32]* %2, i64 0, i64 %39
  %41 = load i32, i32* %40, align 4, !tbaa !8
  %42 = call i32 (i8*, ...) @printf(i8* nonnull dereferenceable(1) getelementptr inbounds ([4 x i8], [4 x i8]* @.str, i64 0, i64 0), i32 %41)
  %43 = add nuw nsw i64 %39, 1
  %44 = icmp eq i64 %43, %18
  br i1 %44, label %45, label %38, !llvm.loop !10

45:                                               ; preds = %38, %13
  %46 = call i32 (i8*, ...) @printf(i8* nonnull dereferenceable(1) getelementptr inbounds ([3 x i8], [3 x i8]* @.str.1, i64 0, i64 0), i32 %8)
  call void @llvm.lifetime.end.p0i8(i64 1200, i8* nonnull %4) #5
  call void @llvm.lifetime.end.p0i8(i64 3000, i8* nonnull %3) #5
  ret i32 0
}

; Function Attrs: argmemonly mustprogress nofree nosync nounwind willreturn
declare void @llvm.lifetime.start.p0i8(i64 immarg, i8* nocapture) #1

; Function Attrs: argmemonly mustprogress nofree nounwind willreturn writeonly
declare void @llvm.memset.p0i8.i64(i8* nocapture writeonly, i8, i64, i1 immarg) #2

declare i32 @gets(...) local_unnamed_addr #3

; Function Attrs: nofree nounwind
declare noundef i32 @printf(i8* nocapture noundef readonly, ...) local_unnamed_addr #4

; Function Attrs: argmemonly mustprogress nofree nosync nounwind willreturn
declare void @llvm.lifetime.end.p0i8(i64 immarg, i8* nocapture) #1


!llvm.module.flags = !{!0, !1, !2, !3}
!llvm.ident = !{!4}

!0 = !{i32 1, !"wchar_size", i32 4}
!1 = !{i32 7, !"PIC Level", i32 2}
!2 = !{i32 7, !"PIE Level", i32 2}
!3 = !{i32 7, !"uwtable", i32 1}
!4 = !{!"clang version 13.0.0"}
!5 = !{!6, !6, i64 0}
!6 = !{!"omnipotent char", !7, i64 0}
!7 = !{!"Simple C/C++ TBAA"}
!8 = !{!9, !9, i64 0}
!9 = !{!"int", !6, i64 0}
!10 = distinct !{!10, !11}
!11 = !{!"llvm.loop.mustprogress"}
